target datalayout = "e-m:e-p270:32:32-p271:32:32-p272:64:64-i64:64-i128:128-f80:128-n8:16:32:64-S128"
target triple = "x86_64-pc-linux-gnu"

%"class.llvm::SmallVectorBase.60" = type { ptr, i32, i32 }
%"struct.(anonymous namespace)::GetCFGOnlyPasses" = type { %"struct.llvm::PassRegistrationListener", ptr }
%"struct.llvm::PassRegistrationListener" = type { ptr }
%"class.llvm::AnalysisUsage" = type <{ %"class.llvm::SmallVector.110", %"class.llvm::SmallVector.115", %"class.llvm::SmallVector.115", %"class.llvm::SmallVector.117", i8, [7 x i8] }>
%"class.llvm::SmallVector.110" = type { %"class.llvm::SmallVectorImpl.111", %"struct.llvm::SmallVectorStorage.114" }
%"class.llvm::SmallVectorImpl.111" = type { %"class.llvm::SmallVectorTemplateBase.112" }
%"class.llvm::SmallVectorTemplateBase.112" = type { %"class.llvm::SmallVectorTemplateCommon.113" }
%"class.llvm::SmallVectorTemplateCommon.113" = type { %"class.llvm::SmallVectorBase.60" }
%"struct.llvm::SmallVectorStorage.114" = type { [64 x i8] }
%"class.llvm::SmallVector.115" = type { %"class.llvm::SmallVectorImpl.111", %"struct.llvm::SmallVectorStorage.116" }
%"struct.llvm::SmallVectorStorage.116" = type { [16 x i8] }
%"class.llvm::SmallVector.117" = type { %"class.llvm::SmallVectorImpl.111" }

; Function Attrs: mustprogress nounwind uwtable
define linkonce_odr hidden void @_ZN4llvm24PassRegistrationListenerD2Ev(ptr noundef nonnull align 8 dereferenceable(8) %0) unnamed_addr #0 comdat align 2 {
  %2 = alloca ptr, align 8
  store ptr %0, ptr %2, align 8
  ret void
}

; Function Attrs: mustprogress nounwind uwtable
define linkonce_odr hidden void @_ZN4llvm24PassRegistrationListenerC2Ev(ptr noundef nonnull align 8 dereferenceable(8) %0) unnamed_addr #0 comdat align 2 {
  %2 = alloca ptr, align 8
  store ptr %0, ptr %2, align 8
  %3 = load ptr, ptr %2, align 8
  store ptr getelementptr inbounds inrange(-16, 32) ({ [6 x ptr] }, ptr @_ZTVN4llvm24PassRegistrationListenerE, i32 0, i32 0, i32 2), ptr %3, align 8
  ret void
}

; Function Attrs: mustprogress nounwind uwtable
define internal void @_ZN12_GLOBAL__N_116GetCFGOnlyPassesD2Ev(ptr noundef nonnull align 8 dereferenceable(16) %0) unnamed_addr #0 align 2 {
  %2 = alloca ptr, align 8
  store ptr %0, ptr %2, align 8
  %3 = load ptr, ptr %2, align 8
  call void @_ZN4llvm24PassRegistrationListenerD2Ev(ptr noundef nonnull align 8 dereferenceable(8) %3) #8
  ret void
}

; Function Attrs: mustprogress nounwind uwtable
define dso_local void @_ZN4llvm24PassRegistrationListener15enumeratePassesEv(ptr noundef nonnull align 8 dereferenceable(8) %0) #0 align 2 {
  %2 = alloca ptr, align 8
  store ptr %0, ptr %2, align 8
  %3 = load ptr, ptr %2, align 8
  %4 = call noundef ptr @_ZN4llvm12PassRegistry15getPassRegistryEv()
  call void @_ZN4llvm12PassRegistry13enumerateWithEPNS_24PassRegistrationListenerE(ptr noundef nonnull align 8 dereferenceable(160) %4, ptr noundef %3)
  ret void
}

; Function Attrs: mustprogress nounwind uwtable
define internal void @_ZN12_GLOBAL__N_116GetCFGOnlyPassesC2ERN4llvm15SmallVectorImplIPKvEE(ptr noundef nonnull align 8 dereferenceable(16) %0, ptr noundef nonnull align 8 dereferenceable(16) %1) unnamed_addr #0 align 2 {
  %3 = alloca ptr, align 8
  %4 = alloca ptr, align 8
  store ptr %0, ptr %3, align 8
  store ptr %1, ptr %4, align 8
  %5 = load ptr, ptr %3, align 8
  call void @_ZN4llvm24PassRegistrationListenerC2Ev(ptr noundef nonnull align 8 dereferenceable(8) %5) #8
  store ptr getelementptr inbounds inrange(-16, 32) ({ [6 x ptr] }, ptr @_ZTVN12_GLOBAL__N_116GetCFGOnlyPassesE, i32 0, i32 0, i32 2), ptr %5, align 8
  %6 = getelementptr inbounds nuw %"struct.(anonymous namespace)::GetCFGOnlyPasses", ptr %5, i32 0, i32 1
  %7 = load ptr, ptr %4, align 8
  store ptr %7, ptr %6, align 8
  ret void
}

; Function Attrs: mustprogress nounwind uwtable
define dso_local void @_ZN4llvm13AnalysisUsage15setPreservesCFGEv(ptr noundef nonnull align 8 dereferenceable(161) %0) #0 align 2 {
  %2 = alloca ptr, align 8
  %3 = alloca %"struct.(anonymous namespace)::GetCFGOnlyPasses", align 8
  store ptr %0, ptr %2, align 8
  %4 = load ptr, ptr %2, align 8
  %5 = getelementptr inbounds nuw %"class.llvm::AnalysisUsage", ptr %4, i32 0, i32 2
  call void @_ZN12_GLOBAL__N_116GetCFGOnlyPassesC2ERN4llvm15SmallVectorImplIPKvEE(ptr noundef nonnull align 8 dereferenceable(16) %3, ptr noundef nonnull align 8 dereferenceable(16) %5)
  call void @_ZN4llvm24PassRegistrationListener15enumeratePassesEv(ptr noundef nonnull align 8 dereferenceable(8) %3)
  call void @_ZN12_GLOBAL__N_116GetCFGOnlyPassesD2Ev(ptr noundef nonnull align 8 dereferenceable(16) %3) #8
  ret void
}