; Function Attrs: mustprogress nounwind uwtable
define dso_local void @_ZN4llvm13AnalysisUsage15setPreservesCFGEv(ptr noundef nonnull align 8 dereferenceable(161) %0) local_unnamed_addr #0 align 2 {
  %2 = alloca %"struct.(anonymous namespace)::GetCFGOnlyPasses", align 8
  %3 = getelementptr inbounds nuw i8, ptr %0, i64 112
  store ptr getelementptr inbounds nuw inrange(-16, 32) (i8, ptr @_ZTVN12_GLOBAL__N_116GetCFGOnlyPassesE, i64 16), ptr %2, align 8
  %4 = getelementptr inbounds nuw i8, ptr %2, i64 8
  store ptr %3, ptr %4, align 8
  %5 = tail call noundef ptr @_ZN4llvm12PassRegistry15getPassRegistryEv() #17
  call void @_ZN4llvm12PassRegistry13enumerateWithEPNS_24PassRegistrationListenerE(ptr noundef nonnull align 8 dereferenceable(160) %5, ptr noundef nonnull align 8 dereferenceable(8) %2) #17
  ret void
}